target datalayout = "e-m:e-p270:32:32-p271:32:32-p272:64:64-i64:64-i128:128-f80:128-n8:16:32:64-S128"
target triple = "x86_64-pc-linux-gnu"

@stderr = external global ptr, align 8
@.str.1035 = private unnamed_addr constant [26 x i8] c"%s L%d error %d for \22%s\22\0A\00", align 1
@.str.1036 = private unnamed_addr constant [108 x i8] c"generated/home/dtcxzyw/WorkSpace/Projects/compilers/llvm-opt-benchmark/bench/wolfssl/wolfssl/wolfssl/test.h\00", align 1
@.str.1048 = private unnamed_addr constant [27 x i8] c"library/system call failed\00", align 1
@.str.1266 = private unnamed_addr constant [3 x i8] c"rb\00", align 1
@.str.1494 = private unnamed_addr constant [18 x i8] c"Error loading %s\0A\00", align 1
@.str.1495 = private unnamed_addr constant [28 x i8] c"XFSEEK(lFile, 0, XSEEK_END)\00", align 1
@.str.1496 = private unnamed_addr constant [28 x i8] c"XFSEEK(lFile, 0, XSEEK_SET)\00", align 1
@.str.1497 = private unnamed_addr constant [28 x i8] c"Error allocating %lu bytes\0A\00", align 1

; Function Attrs: inlinehint nounwind uwtable
define internal i32 @load_file(ptr noundef %0, ptr noundef %1, ptr noundef %2) #4 {
  %4 = alloca i32, align 4
  %5 = alloca ptr, align 8
  %6 = alloca ptr, align 8
  %7 = alloca ptr, align 8
  %8 = alloca i32, align 4
  %9 = alloca i64, align 8
  %10 = alloca ptr, align 8
  %11 = alloca i32, align 4
  %12 = alloca i32, align 4
  %13 = alloca i32, align 4
  %14 = alloca i64, align 8
  store ptr %0, ptr %5, align 8, !tbaa !32
  store ptr %1, ptr %6, align 8, !tbaa !163
  store ptr %2, ptr %7, align 8, !tbaa !232
  call void @llvm.lifetime.start.p0(i64 4, ptr %8) #14
  call void @llvm.lifetime.start.p0(i64 8, ptr %9) #14
  call void @llvm.lifetime.start.p0(i64 8, ptr %10) #14
  %15 = load ptr, ptr %5, align 8, !tbaa !32
  %16 = icmp eq ptr %15, null
  br i1 %16, label %23, label %17

17:                                               ; preds = %3
  %18 = load ptr, ptr %6, align 8, !tbaa !163
  %19 = icmp eq ptr %18, null
  br i1 %19, label %23, label %20

20:                                               ; preds = %17
  %21 = load ptr, ptr %7, align 8, !tbaa !232
  %22 = icmp eq ptr %21, null
  br i1 %22, label %23, label %24

23:                                               ; preds = %20, %17, %3
  store i32 -173, ptr %4, align 4
  store i32 1, ptr %11, align 4
  br label %99

24:                                               ; preds = %20
  %25 = load ptr, ptr %6, align 8, !tbaa !163
  store ptr null, ptr %25, align 8, !tbaa !32
  %26 = load ptr, ptr %7, align 8, !tbaa !232
  store i64 0, ptr %26, align 8, !tbaa !72
  %27 = load ptr, ptr %5, align 8, !tbaa !32
  %28 = call noalias ptr @fopen(ptr noundef %27, ptr noundef @.str.1266)
  store ptr %28, ptr %10, align 8, !tbaa !22
  %29 = load ptr, ptr %10, align 8, !tbaa !22
  %30 = icmp ne ptr %29, null
  br i1 %30, label %35, label %31

31:                                               ; preds = %24
  %32 = load ptr, ptr @stderr, align 8, !tbaa !22
  %33 = load ptr, ptr %5, align 8, !tbaa !32
  %34 = call i32 (ptr, ptr, ...) @fprintf(ptr noundef %32, ptr noundef @.str.1494, ptr noundef %33) #14
  store i32 -244, ptr %4, align 4
  store i32 1, ptr %11, align 4
  br label %99

35:                                               ; preds = %24
  br label %36

36:                                               ; preds = %35
  call void @llvm.lifetime.start.p0(i64 4, ptr %12) #14
  %37 = load ptr, ptr %10, align 8, !tbaa !22
  %38 = call i32 @fseek(ptr noundef %37, i64 noundef 0, i32 noundef 2)
  store i32 %38, ptr %12, align 4, !tbaa !10
  %39 = load i32, ptr %12, align 4, !tbaa !10
  %40 = icmp slt i32 %39, 0
  br i1 %40, label %41, label %46

41:                                               ; preds = %36
  %42 = load ptr, ptr @stderr, align 8, !tbaa !22
  %43 = call ptr @__errno_location() #16
  %44 = load i32, ptr %43, align 4, !tbaa !10
  %45 = call i32 (ptr, ptr, ...) @fprintf(ptr noundef %42, ptr noundef @.str.1035, ptr noundef @.str.1036, i32 noundef 2254, i32 noundef %44, ptr noundef @.str.1495) #14
  call void @err_sys(ptr noundef @.str.1048) #17
  unreachable

46:                                               ; preds = %36
  call void @llvm.lifetime.end.p0(i64 4, ptr %12) #14
  br label %47

47:                                               ; preds = %46
  br label %48

48:                                               ; preds = %47
  %49 = load ptr, ptr %10, align 8, !tbaa !22
  %50 = call i64 @ftell(ptr noundef %49)
  %51 = trunc i64 %50 to i32
  %52 = sext i32 %51 to i64
  store i64 %52, ptr %9, align 8, !tbaa !72
  br label %53

53:                                               ; preds = %48
  call void @llvm.lifetime.start.p0(i64 4, ptr %13) #14
  %54 = load ptr, ptr %10, align 8, !tbaa !22
  %55 = call i32 @fseek(ptr noundef %54, i64 noundef 0, i32 noundef 0)
  store i32 %55, ptr %13, align 4, !tbaa !10
  %56 = load i32, ptr %13, align 4, !tbaa !10
  %57 = icmp slt i32 %56, 0
  br i1 %57, label %58, label %63

58:                                               ; preds = %53
  %59 = load ptr, ptr @stderr, align 8, !tbaa !22
  %60 = call ptr @__errno_location() #16
  %61 = load i32, ptr %60, align 4, !tbaa !10
  %62 = call i32 (ptr, ptr, ...) @fprintf(ptr noundef %59, ptr noundef @.str.1035, ptr noundef @.str.1036, i32 noundef 2256, i32 noundef %61, ptr noundef @.str.1496) #14
  call void @err_sys(ptr noundef @.str.1048) #17
  unreachable

63:                                               ; preds = %53
  call void @llvm.lifetime.end.p0(i64 4, ptr %13) #14
  br label %64

64:                                               ; preds = %63
  br label %65

65:                                               ; preds = %64
  %66 = load i64, ptr %9, align 8, !tbaa !72
  %67 = icmp sgt i64 %66, 0
  br i1 %67, label %68, label %94

68:                                               ; preds = %65
  %69 = load i64, ptr %9, align 8, !tbaa !72
  %70 = load ptr, ptr %7, align 8, !tbaa !232
  store i64 %69, ptr %70, align 8, !tbaa !72
  %71 = load ptr, ptr %7, align 8, !tbaa !232
  %72 = load i64, ptr %71, align 8, !tbaa !72
  %73 = call noalias ptr @malloc(i64 noundef %72) #19
  %74 = load ptr, ptr %6, align 8, !tbaa !163
  store ptr %73, ptr %74, align 8, !tbaa !32
  %75 = load ptr, ptr %6, align 8, !tbaa !163
  %76 = load ptr, ptr %75, align 8, !tbaa !32
  %77 = icmp eq ptr %76, null
  br i1 %77, label %78, label %83

78:                                               ; preds = %68
  store i32 -125, ptr %8, align 4, !tbaa !10
  %79 = load ptr, ptr @stderr, align 8, !tbaa !22
  %80 = load ptr, ptr %7, align 8, !tbaa !232
  %81 = load i64, ptr %80, align 8, !tbaa !72
  %82 = call i32 (ptr, ptr, ...) @fprintf(ptr noundef %79, ptr noundef @.str.1497, i64 noundef %81) #14
  br label %93

83:                                               ; preds = %68
  call void @llvm.lifetime.start.p0(i64 8, ptr %14) #14
  %84 = load ptr, ptr %6, align 8, !tbaa !163
  %85 = load ptr, ptr %84, align 8, !tbaa !32
  %86 = load ptr, ptr %7, align 8, !tbaa !232
  %87 = load i64, ptr %86, align 8, !tbaa !72
  %88 = load ptr, ptr %10, align 8, !tbaa !22
  %89 = call i64 @fread(ptr noundef %85, i64 noundef %87, i64 noundef 1, ptr noundef %88)
  store i64 %89, ptr %14, align 8, !tbaa !72
  %90 = load i64, ptr %14, align 8, !tbaa !72
  %91 = icmp ugt i64 %90, 0
  %92 = select i1 %91, i32 0, i32 -1
  store i32 %92, ptr %8, align 4, !tbaa !10
  call void @llvm.lifetime.end.p0(i64 8, ptr %14) #14
  br label %93

93:                                               ; preds = %83, %78
  br label %95

94:                                               ; preds = %65
  store i32 -132, ptr %8, align 4, !tbaa !10
  br label %95

95:                                               ; preds = %94, %93
  %96 = load ptr, ptr %10, align 8, !tbaa !22
  %97 = call i32 @fclose(ptr noundef %96)
  %98 = load i32, ptr %8, align 4, !tbaa !10
  store i32 %98, ptr %4, align 4
  store i32 1, ptr %11, align 4
  br label %99

99:                                               ; preds = %95, %31, %23
  call void @llvm.lifetime.end.p0(i64 8, ptr %10) #14
  call void @llvm.lifetime.end.p0(i64 8, ptr %9) #14
  call void @llvm.lifetime.end.p0(i64 4, ptr %8) #14
  %100 = load i32, ptr %4, align 4
  ret i32 %100
}