; Function Attrs: inlinehint nofree nounwind uwtable
define internal fastcc range(i32 -244, 1) i32 @load_file(ptr noundef %0, ptr noundef nonnull writeonly captures(none) %1, ptr noundef nonnull writeonly captures(none) %2) unnamed_addr #17 {
  %4 = icmp eq ptr %0, null
  br i1 %4, label %41, label %5

5:                                                ; preds = %3
  store ptr null, ptr %1, align 8, !tbaa !83
  store i64 0, ptr %2, align 8, !tbaa !56
  %6 = tail call noalias ptr @fopen(ptr noundef nonnull %0, ptr noundef nonnull @.str.1266)
  %.not = icmp eq ptr %6, null
  br i1 %.not, label %7, label %10

7:                                                ; preds = %5
  %8 = load ptr, ptr @stderr, align 8, !tbaa !22
  %9 = tail call i32 (ptr, ptr, ...) @fprintf(ptr noundef %8, ptr noundef nonnull @.str.1494, ptr noundef nonnull %0) #28
  br label %41

10:                                               ; preds = %5
  %11 = tail call i32 @fseek(ptr noundef nonnull %6, i64 noundef 0, i32 noundef 2)
  %12 = icmp slt i32 %11, 0
  br i1 %12, label %13, label %18

13:                                               ; preds = %10
  %14 = load ptr, ptr @stderr, align 8, !tbaa !22
  %15 = tail call ptr @__errno_location() #29
  %16 = load i32, ptr %15, align 4, !tbaa !67
  %17 = tail call i32 (ptr, ptr, ...) @fprintf(ptr noundef %14, ptr noundef nonnull @.str.1035, ptr noundef nonnull @.str.1036, i32 noundef 2254, i32 noundef %16, ptr noundef nonnull @.str.1495) #28
  tail call fastcc void @err_sys(ptr noundef nonnull @.str.1048) #30
  unreachable

18:                                               ; preds = %10
  %19 = tail call i64 @ftell(ptr noundef nonnull %6)
  %sext = shl i64 %19, 32
  %20 = ashr exact i64 %sext, 32
  %21 = tail call i32 @fseek(ptr noundef nonnull %6, i64 noundef 0, i32 noundef 0)
  %22 = icmp slt i32 %21, 0
  br i1 %22, label %23, label %28

23:                                               ; preds = %18
  %24 = load ptr, ptr @stderr, align 8, !tbaa !22
  %25 = tail call ptr @__errno_location() #29
  %26 = load i32, ptr %25, align 4, !tbaa !67
  %27 = tail call i32 (ptr, ptr, ...) @fprintf(ptr noundef %24, ptr noundef nonnull @.str.1035, ptr noundef nonnull @.str.1036, i32 noundef 2256, i32 noundef %26, ptr noundef nonnull @.str.1496) #28
  tail call fastcc void @err_sys(ptr noundef nonnull @.str.1048) #30
  unreachable

28:                                               ; preds = %18
  %29 = icmp sgt i64 %20, 0
  br i1 %29, label %30, label %39

30:                                               ; preds = %28
  store i64 %20, ptr %2, align 8, !tbaa !56
  %31 = tail call noalias ptr @malloc(i64 noundef %20) #33
  store ptr %31, ptr %1, align 8, !tbaa !83
  %32 = icmp eq ptr %31, null
  br i1 %32, label %33, label %36

33:                                               ; preds = %30
  %34 = load ptr, ptr @stderr, align 8, !tbaa !22
  %35 = tail call i32 (ptr, ptr, ...) @fprintf(ptr noundef %34, ptr noundef nonnull @.str.1497, i64 noundef %20) #28
  br label %39

36:                                               ; preds = %30
  %37 = tail call i64 @fread(ptr noundef nonnull %31, i64 noundef %20, i64 noundef 1, ptr noundef nonnull %6)
  %.not36 = icmp eq i64 %37, 0
  %38 = sext i1 %.not36 to i32
  br label %39

39:                                               ; preds = %28, %33, %36
  %.029 = phi i32 [ -125, %33 ], [ %38, %36 ], [ -132, %28 ]
  %40 = tail call i32 @fclose(ptr noundef nonnull %6)
  br label %41

41:                                               ; preds = %3, %39, %7
  %.0 = phi i32 [ %.029, %39 ], [ -244, %7 ], [ -173, %3 ]
  ret i32 %.0
}